target datalayout = "e-m:e-p270:32:32-p271:32:32-p272:64:64-i64:64-i128:128-f80:128-n8:16:32:64-S128"
target triple = "x86_64-pc-linux-gnu"

%"class.cv::tinyxml2::StrPair" = type { i32, ptr, ptr }
%"class.cv::tinyxml2::XMLNode" = type { ptr, ptr, ptr, %"class.cv::tinyxml2::StrPair", ptr, ptr, ptr, ptr, ptr }
%"class.cv::tinyxml2::XMLElement" = type { %"class.cv::tinyxml2::XMLNode", i32, ptr }

; Function Attrs: mustprogress nounwind uwtable
define linkonce_odr hidden noundef ptr @_ZNK2cv8tinyxml27XMLNode11NextSiblingEv(ptr noundef nonnull align 8 dereferenceable(88) %0) #0 comdat align 2 {
  %2 = alloca ptr, align 8
  store ptr %0, ptr %2, align 8, !tbaa !55
  %3 = load ptr, ptr %2, align 8
  %4 = getelementptr inbounds nuw %"class.cv::tinyxml2::XMLNode", ptr %3, i32 0, i32 7
  %5 = load ptr, ptr %4, align 8, !tbaa !114
  ret ptr %5
}

; Function Attrs: mustprogress nounwind uwtable
define linkonce_odr hidden noundef ptr @_ZNK2cv8tinyxml27XMLNode10FirstChildEv(ptr noundef nonnull align 8 dereferenceable(88) %0) #0 comdat align 2 {
  %2 = alloca ptr, align 8
  store ptr %0, ptr %2, align 8, !tbaa !55
  %3 = load ptr, ptr %2, align 8
  %4 = getelementptr inbounds nuw %"class.cv::tinyxml2::XMLNode", ptr %3, i32 0, i32 4
  %5 = load ptr, ptr %4, align 8, !tbaa !113
  ret ptr %5
}

; Function Attrs: mustprogress uwtable
define hidden noundef zeroext i1 @_ZNK2cv8tinyxml210XMLElement6AcceptEPNS0_10XMLVisitorE(ptr noundef nonnull align 8 dereferenceable(104) %0, ptr noundef %1) unnamed_addr #3 align 2 {
  %3 = alloca ptr, align 8
  %4 = alloca ptr, align 8
  %5 = alloca ptr, align 8
  %6 = alloca i32, align 4
  store ptr %0, ptr %3, align 8, !tbaa !121
  store ptr %1, ptr %4, align 8, !tbaa !110
  %7 = load ptr, ptr %3, align 8
  %8 = load ptr, ptr %4, align 8, !tbaa !110
  %9 = getelementptr inbounds nuw %"class.cv::tinyxml2::XMLElement", ptr %7, i32 0, i32 2
  %10 = load ptr, ptr %9, align 8, !tbaa !152
  %11 = load ptr, ptr %8, align 8, !tbaa !92
  %12 = getelementptr inbounds ptr, ptr %11, i64 4
  %13 = load ptr, ptr %12, align 8
  %14 = call noundef zeroext i1 %13(ptr noundef nonnull align 8 dereferenceable(8) %8, ptr noundef nonnull align 8 dereferenceable(104) %7, ptr noundef %10)
  br i1 %14, label %15, label %35

15:                                               ; preds = %2
  call void @llvm.lifetime.start.p0(i64 8, ptr %5) #17
  %16 = call noundef ptr @_ZNK2cv8tinyxml27XMLNode10FirstChildEv(ptr noundef nonnull align 8 dereferenceable(88) %7)
  store ptr %16, ptr %5, align 8, !tbaa !55
  br label %17

17:                                               ; preds = %30, %15
  %18 = load ptr, ptr %5, align 8, !tbaa !55
  %19 = icmp ne ptr %18, null
  br i1 %19, label %21, label %20

20:                                               ; preds = %17
  store i32 2, ptr %6, align 4
  br label %33

21:                                               ; preds = %17
  %22 = load ptr, ptr %5, align 8, !tbaa !55
  %23 = load ptr, ptr %4, align 8, !tbaa !110
  %24 = load ptr, ptr %22, align 8, !tbaa !92
  %25 = getelementptr inbounds ptr, ptr %24, i64 14
  %26 = load ptr, ptr %25, align 8
  %27 = call noundef zeroext i1 %26(ptr noundef nonnull align 8 dereferenceable(88) %22, ptr noundef %23)
  br i1 %27, label %29, label %28

28:                                               ; preds = %21
  store i32 2, ptr %6, align 4
  br label %33

29:                                               ; preds = %21
  br label %30

30:                                               ; preds = %29
  %31 = load ptr, ptr %5, align 8, !tbaa !55
  %32 = call noundef ptr @_ZNK2cv8tinyxml27XMLNode11NextSiblingEv(ptr noundef nonnull align 8 dereferenceable(88) %31)
  store ptr %32, ptr %5, align 8, !tbaa !55
  br label %17, !llvm.loop !174

33:                                               ; preds = %28, %20
  call void @llvm.lifetime.end.p0(i64 8, ptr %5) #17
  br label %34

34:                                               ; preds = %33
  br label %35

35:                                               ; preds = %34, %2
  %36 = load ptr, ptr %4, align 8, !tbaa !110
  %37 = load ptr, ptr %36, align 8, !tbaa !92
  %38 = getelementptr inbounds ptr, ptr %37, i64 5
  %39 = load ptr, ptr %38, align 8
  %40 = call noundef zeroext i1 %39(ptr noundef nonnull align 8 dereferenceable(8) %36, ptr noundef nonnull align 8 dereferenceable(104) %7)
  ret i1 %40
}