; Function Attrs: mustprogress uwtable
define hidden noundef zeroext i1 @_ZNK2cv8tinyxml210XMLElement6AcceptEPNS0_10XMLVisitorE(ptr noundef nonnull align 8 dereferenceable(104) %0, ptr noundef %1) unnamed_addr #4 align 2 {
  %3 = getelementptr inbounds nuw i8, ptr %0, i64 96
  %4 = load ptr, ptr %3, align 8, !tbaa !47
  %5 = load ptr, ptr %1, align 8, !tbaa !39
  %6 = getelementptr inbounds nuw i8, ptr %5, i64 32
  %7 = load ptr, ptr %6, align 8
  %8 = tail call noundef zeroext i1 %7(ptr noundef nonnull align 8 dereferenceable(8) %1, ptr noundef nonnull align 8 dereferenceable(104) %0, ptr noundef %4)
  %9 = getelementptr inbounds nuw i8, ptr %0, i64 48
  %.07 = load ptr, ptr %9, align 8
  %.not8 = icmp ne ptr %.07, null
  %or.cond.not = select i1 %8, i1 %.not8, i1 false
  br i1 %or.cond.not, label %.lr.ph, label %.loopexit

10:                                               ; preds = %.lr.ph
  %11 = getelementptr inbounds nuw i8, ptr %.09, i64 72
  %.0 = load ptr, ptr %11, align 8, !tbaa !48
  %.not = icmp eq ptr %.0, null
  br i1 %.not, label %.loopexit, label %.lr.ph, !llvm.loop !145

.lr.ph:                                           ; preds = %2, %10
  %.09 = phi ptr [ %.0, %10 ], [ %.07, %2 ]
  %12 = load ptr, ptr %.09, align 8, !tbaa !39
  %13 = getelementptr inbounds nuw i8, ptr %12, i64 112
  %14 = load ptr, ptr %13, align 8
  %15 = tail call noundef zeroext i1 %14(ptr noundef nonnull align 8 dereferenceable(88) %.09, ptr noundef nonnull %1)
  br i1 %15, label %10, label %.loopexit

.loopexit:                                        ; preds = %.lr.ph, %10, %2
  %16 = load ptr, ptr %1, align 8, !tbaa !39
  %17 = getelementptr inbounds nuw i8, ptr %16, i64 40
  %18 = load ptr, ptr %17, align 8
  %19 = tail call noundef zeroext i1 %18(ptr noundef nonnull align 8 dereferenceable(8) %1, ptr noundef nonnull align 8 dereferenceable(104) %0)
  ret i1 %19
}